(dp0
Vengine
p1
S'pdflatex'
p2
sVpackages
p3
c__builtin__
set
p4
((lp5
Vgraphicx
p6
aVmulticol
p7
aValgorithm
p8
aVfootnote
p9
aVbabel
p10
aVabstract
p11
aVlistings
p12
aVlipsum
p13
aVdblfnote
p14
aVgeometry
p15
aValgpseudocode
p16
aVamsmath
p17
aVurl
p18
aVinputenc
p19
aVcite
p20
aVnatbib
p21
atp22
Rp23
sVfiles_with_guttermarks
p24
g4
((lp25
S'paper.tex'
p26
atp27
Rp28
sVsynctex
p29
I01
s.